
main:     file format elf32-littleriscv
main
architecture: riscv:rv32, flags 0x00000112:
EXEC_P, HAS_SYMS, D_PAGED
start address 0x00000000

Program Header:
    LOAD off    0x00001000 vaddr 0x00000000 paddr 0x00000000 align 2**12
         filesz 0x00000294 memsz 0x00000294 flags r-x
    LOAD off    0x00002000 vaddr 0x00020000 paddr 0x00020000 align 2**12
         filesz 0x00000000 memsz 0x000000a0 flags rw-
    LOAD off    0x00002000 vaddr 0x00010000 paddr 0x20000000 align 2**12
         filesz 0x0000091c memsz 0x0000091c flags r-x
    LOAD off    0x00003000 vaddr 0x20100000 paddr 0x20100000 align 2**12
         filesz 0x00000000 memsz 0x00001000 flags rw-
    LOAD off    0x000030a0 vaddr 0x000200a0 paddr 0x20101000 align 2**12
         filesz 0x00000024 memsz 0x00000028 flags rw-
    LOAD off    0x000030c8 vaddr 0x000200c8 paddr 0x20101024 align 2**12
         filesz 0x00000000 memsz 0x00001000 flags rw-

Sections:
Idx Name          Size      VMA       LMA       File off  Algn
  0 .text0        00000294  00000000  00000000  00001000  2**2
                  CONTENTS, ALLOC, LOAD, READONLY, CODE
  1 .text1        0000091c  00010000  20000000  00002000  2**2
                  CONTENTS, ALLOC, LOAD, READONLY, CODE
  2 _test         00001000  20100000  20100000  00003000  2**0
                  ALLOC
  3 .sbss         000000a0  00020000  00020000  00002000  2**2
                  ALLOC
  4 .sdata        00000024  000200a0  20101000  000030a0  2**2
                  CONTENTS, ALLOC, LOAD, DATA
  5 .data         00000000  000200c4  20101024  000030c4  2**0
                  CONTENTS, ALLOC, LOAD, DATA
  6 .bss          00000004  000200c4  20101024  000030c4  2**2
                  ALLOC
  7 .stack        00001000  000200c8  20101024  000030c8  2**0
                  ALLOC
  8 .comment      0000001a  00000000  00000000  000030c4  2**0
                  CONTENTS, READONLY
SYMBOL TABLE:
00000000 l    d  .text0	00000000 .text0
00010000 l    d  .text1	00000000 .text1
20100000 l    d  _test	00000000 _test
00020000 l    d  .sbss	00000000 .sbss
000200a0 l    d  .sdata	00000000 .sdata
000200c4 l    d  .data	00000000 .data
000200c4 l    d  .bss	00000000 .bss
000200c8 l    d  .stack	00000000 .stack
00000000 l    d  .comment	00000000 .comment
00000000 l    df *ABS*	00000000 setup.o
00000084 l       .text0	00000000 init_bss
00000108 l       .text0	00000000 fill_block
0000009c l       .text0	00000000 init_sbss
000000b4 l       .text0	00000000 write_stack_pattern
000000cc l       .text0	00000000 init_stack
000000d4 l       .text0	00000000 write_test_pattern
000000ec l       .text0	00000000 SystemInit
000000f4 l       .text0	00000000 SystemExit
00000104 l       .text0	00000000 dead_loop
00000118 l       .text0	00000000 fb_end
00000000 l    df *ABS*	00000000 boot.c
00000000 l    df *ABS*	00000000 main.c
000200ac l     O .sdata	00000004 motor_kp_mul
000200b0 l     O .sdata	00000004 motor_kp_div
000200b4 l     O .sdata	00000004 motor_ki_mul
000200b8 l     O .sdata	00000004 motor_ki_div
000200bc l     O .sdata	00000004 motor_kd_mul
000200c0 l     O .sdata	00000004 motor_kd_div
00020008 g     O .sbss	00000004 motor1_err
000200c4 g     O .bss	00000004 copy_addr
20100000 g       _test	00000000 _test_start
0002006c g     O .sbss	00000004 motor4_err_prev
20101024 g       *ABS*	00000000 __data_paddr_start
00020024 g     O .sbss	00000004 motor2_Vsens
00020080 g     O .sbss	00000004 motor4_Vref
0002000c g     O .sbss	00000004 motor1_err_prev
00020088 g     O .sbss	00000004 x_value
00020000 g     O .sbss	00000004 copy_count
00020000 g       .sbss	00000000 __sbss_start
00020068 g     O .sbss	00000004 motor4_err
000208a0 g       .sdata	00000000 _gp
00020064 g     O .sbss	00000004 motor4_Vsens
20101000 g       _test	00000000 _test_end
00010000 g       .text1	00000000 _imem_start
00020038 g     O .sbss	00000004 motor2_Vcomp
00020030 g     O .sbss	00000004 motor2_integral
0002008c g     O .sbss	00000004 y_value
00001000 g       *ABS*	00000000 _TEST_SIZE
20101000 g       *ABS*	00000000 __sdata_paddr_start
000200a0 g       .sdata	00000000 __sdata_start
00010108 g     F .text1	000000a4 copy
0001091c g       .text1	00000000 __rodata_end
00020028 g     O .sbss	00000004 motor2_err
0002003c g     O .sbss	00000004 motor2_Vcomp_temp
0000011c g     F .text0	00000178 boot
00020078 g     O .sbss	00000004 motor4_Vcomp
000200c8 g       .bss	00000000 __bss_end
0002009c g     O .sbss	00000004 distance
00020060 g     O .sbss	00000004 motor3_Vref
00020020 g     O .sbss	00000004 motor1_Vref
00020058 g     O .sbss	00000004 motor3_Vcomp
0002004c g     O .sbss	00000004 motor3_err_prev
000200a0 g       .sbss	00000000 __sbss_end
00020018 g     O .sbss	00000004 motor1_Vcomp
0002005c g     O .sbss	00000004 motor3_Vcomp_temp
00020090 g     O .sbss	00000004 z_value
00020054 g     O .sbss	00000004 motor3_derivative
00020014 g     O .sbss	00000004 motor1_derivative
00000000 g       .text0	00000000 _start
0001091c g       .text1	00000000 __rodata_start
00020070 g     O .sbss	00000004 motor4_integral
00020044 g     O .sbss	00000004 motor3_Vsens
000200c4 g       .data	00000000 __data_end
00020050 g     O .sbss	00000004 motor3_integral
20000000 g       .text1	00000000 _dram_i_start
00020098 g     O .sbss	00000004 counter
000200c4 g       .bss	00000000 __bss_start
00001000 g       *ABS*	00000000 _STACK_SIZE
0002fffc g       .stack	00000000 _sim_end
000101ac g     F .text1	00000770 main
00010000 g       .text1	00000000 trap_entry
0002007c g     O .sbss	00000004 motor4_Vcomp_temp
0002001c g     O .sbss	00000004 motor1_Vcomp_temp
00020040 g     O .sbss	00000004 motor2_Vref
000200c8 g       .stack	00000000 _stack_end
000200c4 g       .sdata	00000000 __sdata_end
00020094 g     O .sbss	00000004 motor_Vcomp_total
00020004 g     O .sbss	00000004 motor1_Vsens
000200a4 g     O .sdata	00000004 sensor_addr
0002002c g     O .sbss	00000004 motor2_err_prev
2000091c g       .text1	00000000 _dram_i_end
00020084 g     O .sbss	00000004 initial_vel
000200a0 g     O .sdata	00000004 sensor_size
00020048 g     O .sbss	00000004 motor3_err
000210c8 g       .stack	00000000 __stack
00030000 g       .stack	00000000 _end
00020010 g     O .sbss	00000004 motor1_integral
000200a8 g     O .sdata	00000004 pwm_addr
000210c8 g       .stack	00000000 _stack
000200c4 g       .data	00000000 __data_start
00020034 g     O .sbss	00000004 motor2_derivative
00020074 g     O .sbss	00000004 motor4_derivative


Contents of section .text0:
 0000 93000000 13010000 93010000 13020000  ................
 0010 93020000 13030000 93030000 13040000  ................
 0020 93040000 13050000 93050000 13060000  ................
 0030 93060000 13070000 93070000 13080000  ................
 0040 93080000 13090000 93090000 130a0000  ................
 0050 930a0000 130b0000 930b0000 130c0000  ................
 0060 930c0000 130d0000 930d0000 130e0000  ................
 0070 930e0000 130f0000 930f0000 97110200  ................
 0080 93814182 17050200 13050504 97050200  ..A.............
 0090 93858503 13060000 ef000007 17050200  ................
 00a0 130545f6 97050200 938585ff 13060000  ..E.............
 00b0 ef008005 17050200 13054501 97150200  ..........E.....
 00c0 93858500 13060000 ef000004 17110200  ................
 00d0 1301c1ff 17051020 1305c5f2 97151020  ....... ....... 
 00e0 938505f2 13060000 ef000002 ef000003  ................
 00f0 ef00c10b 97020300 938282f0 1303f0ff  ................
 0100 23a06200 6f000000 63e8a500 2320c500  #.b.o...c...# ..
 0110 13054500 6ff05fff 67800000 130101fd  ..E.o._.g.......
 0120 23268102 13040103 b7070020 93870700  #&......... ....
 0130 2320f4fe 232604fe 6f000004 8327c4fe  # ..#&..o....'..
 0140 93972700 032704fe b307f700 83a60700  ..'..'..........
 0150 8327c4fe 13972700 b7070100 93870700  .'....'.........
 0160 b307f700 13870600 23a0e700 8327c4fe  ........#....'..
 0170 93871700 2326f4fe b7170020 1387c791  ....#&..... ....
 0180 b7070020 93870700 b307f740 93d72740  ... .......@..'@
 0190 13870700 8327c4fe e352f7fa b7171020  .....'...R..... 
 01a0 93874702 232ef4fc 232404fe 6f000004  ..G.#...#$..o...
 01b0 832784fe 93972700 0327c4fd b307f700  .'....'..'......
 01c0 83a60700 832784fe 13972700 b7070200  .....'....'.....
 01d0 9387470c b307f700 13870600 23a0e700  ..G.........#...
 01e0 832784fe 93871700 2324f4fe b7070200  .'......#$......
 01f0 1387470c b7070200 9387470c b307f740  ..G.......G....@
 0200 93d72740 13870700 832784fe e352f7fa  ..'@.....'...R..
 0210 b7171020 93870700 232cf4fc 232204fe  ... ....#,..#"..
 0220 6f000004 832744fe 93972700 032784fd  o....'D...'..'..
 0230 b307f700 83a60700 832744fe 13972700  .........'D...'.
 0240 b7070200 9387070a b307f700 13870600  ................
 0250 23a0e700 832744fe 93871700 2322f4fe  #....'D.....#"..
 0260 b7070200 1387470c b7070200 9387070a  ......G.........
 0270 b307f740 93d72740 13870700 832744fe  ...@..'@.....'D.
 0280 e352f7fa 13000000 0324c102 13010103  .R.......$......
 0290 67800000                             g...            
Contents of section .text1:
 10000 130141f8 23201100 23222100 23243100  ..A.# ..#"!.#$1.
 10010 23264100 23285100 232a6100 232c7100  #&A.#(Q.#*a.#,q.
 10020 232e8100 23209102 2322a102 2324b102  #...# ..#"..#$..
 10030 2326c102 2328d102 232ae102 232cf102  #&..#(..#*..#,..
 10040 232e0103 23201105 23222105 23243105  #...# ..#"!.#$1.
 10050 23264105 23285105 232a6105 232c7105  #&A.#(Q.#*a.#,q.
 10060 232e8105 23209107 2322a107 2324b107  #...# ..#"..#$..
 10070 2326c107 2328d107 232ae107 232cf107  #&..#(..#*..#,..
 10080 ef008008 83200100 03214100 83218100  ..... ...!A..!..
 10090 0322c100 83220101 03234101 83238101  ."..."...#A..#..
 100a0 0324c101 83240102 03254102 83258102  .$...$...%A..%..
 100b0 0326c102 83260103 03274103 83278103  .&...&...'A..'..
 100c0 0328c103 83280104 03294104 83298104  .(...(...)A..)..
 100d0 032ac104 832a0105 032b4105 832b8105  .*...*...+A..+..
 100e0 032cc105 832c0106 032d4106 832d8106  .,...,...-A..-..
 100f0 032ec106 832e0107 032f4107 832f8107  ........./A../..
 10100 1301c107 73002030 130101fe 232e8100  ....s. 0....#...
 10110 13040102 232604fe 6f000004 b7070200  ....#&..o.......
 10120 03a7470a 8327c4fe 93972700 3307f700  ..G..'....'.3...
 10130 b7070200 83a6470c 8327c4fe 93972700  ......G..'....'.
 10140 b387f600 03270700 23a0e700 8327c4fe  .....'..#....'..
 10150 93871700 2326f4fe 0327c4fe 93078000  ....#&...'......
 10160 e36ef7fa b7070200 03a7470c 93078000  .n........G.....
 10170 93972700 3307f700 b7070200 23a2e70c  ..'.3.......#...
 10180 b7070200 83a70700 13871700 b7070200  ................
 10190 23a0e700 930f0008 73b00f30 13000000  #.......s..0....
 101a0 0324c101 13010102 67800000 130101fe  .$......g.......
 101b0 232e8100 13040102 b7071020 93870700  #.......... ....
 101c0 2326f4fe b7071020 93870700 2324f4fe  #&..... ....#$..
 101d0 232204fe b7070200 37071020 13070700  #"......7.. ....
 101e0 23a2e70c 73600430 b71f0000 938f0f80  #...s`.0........
 101f0 73a04f30 b7070200 83a7470a 93870710  s.O0......G.....
 10200 13071000 23a0e700 b7070200 83a78709  ....#...........
 10210 13871700 b7070200 23ace708 b7070200  ........#.......
 10220 03a78709 b767cd1d 93870750 63d0e702  .....g.....Pc...
 10230 b7070200 83a7470a 93870720 13071000  ......G.... ....
 10240 23a0e700 93070000 6f00406c b7070200  #.......o.@l....
 10250 032784fe 23a2e70c 73005010 8327c4fe  .'..#...s.P..'..
 10260 03a70700 b7070200 23a2e700 8327c4fe  ........#....'..
 10270 03a74700 b7070200 23a2e702 8327c4fe  ..G.....#....'..
 10280 03a78700 b7070200 23a2e704 8327c4fe  ........#....'..
 10290 03a7c700 b7070200 23a2e706 8327c4fe  ........#....'..
 102a0 03a70701 b7070200 23a2e708 8327c4fe  ........#....'..
 102b0 03a74701 b7070200 23a4e708 8327c4fe  ..G.....#....'..
 102c0 03a78701 b7070200 23a6e708 8327c4fe  ........#....'..
 102d0 03a7c701 b7070200 23aee708 b7070200  ........#.......
 102e0 03a7c709 93079001 63c8e700 b7070200  ........c.......
 102f0 1307b0ff 23a6e708 b7070200 03a74708  ....#.........G.
 10300 b7070200 83a78708 3307f740 b7070200  ........3..@....
 10310 83a7c708 3307f740 b7070200 23a0e702  ....3..@....#...
 10320 b7070200 03a74708 b7070200 83a78708  ......G.........
 10330 3307f700 b7070200 83a7c708 3307f740  3...........3..@
 10340 b7070200 23a0e704 b7070200 03a74708  ....#.........G.
 10350 b7070200 83a78708 3307f700 b7070200  ........3.......
 10360 83a7c708 3307f700 b7070200 23a0e706  ....3.......#...
 10370 b7070200 03a74708 b7070200 83a78708  ......G.........
 10380 3307f740 b7070200 83a7c708 3307f700  3..@........3...
 10390 b7070200 23a0e708 832784fe 2326f4fe  ....#....'..#&..
 103a0 b7070200 03a70702 b7070200 83a74700  ..............G.
 103b0 3307f740 b7070200 23a4e700 b7070200  3..@....#.......
 103c0 03a78700 b7070200 83a7c700 3307f700  ............3...
 103d0 b7070200 83a70701 b307f700 13d71740  ...............@
 103e0 b7070200 23a8e700 b7070200 03a78700  ....#...........
 103f0 b7070200 83a7c700 3307f740 b7070200  ........3..@....
 10400 23aae700 b7070200 83a70702 13d73740  #.............7@
 10410 b7070200 83a6c70a b7070200 83a78700  ................
 10420 b386f602 b7070200 83a7070b b3c7f602  ................
 10430 3307f700 b7070200 83a6470b b7070200  3.........G.....
 10440 83a70701 b386f602 b7070200 83a7870b  ................
 10450 b3c7f602 3307f700 b7070200 83a6c70b  ....3...........
 10460 b7070200 83a74701 b386f602 b7070200  ......G.........
 10470 83a7070c b3c7f602 3307f700 b7070200  ........3.......
 10480 23aee700 b7070200 03a78700 b7070200  #...............
 10490 23a6e700 b7070200 03a70704 b7070200  #...............
 104a0 83a74702 3307f740 b7070200 23a4e702  ..G.3..@....#...
 104b0 b7070200 03a78702 b7070200 83a7c702  ................
 104c0 3307f700 b7070200 83a70703 b307f700  3...............
 104d0 13d71740 b7070200 23a8e702 b7070200  ...@....#.......
 104e0 03a78702 b7070200 83a7c702 3307f740  ............3..@
 104f0 b7070200 23aae702 b7070200 83a70704  ....#...........
 10500 13d73740 b7070200 83a6c70a b7070200  ..7@............
 10510 83a78702 b386f602 b7070200 83a7070b  ................
 10520 b3c7f602 3307f700 b7070200 83a6470b  ....3.........G.
 10530 b7070200 83a70703 b386f602 b7070200  ................
 10540 83a7870b b3c7f602 3307f700 b7070200  ........3.......
 10550 83a6c70b b7070200 83a74703 b386f602  ..........G.....
 10560 b7070200 83a7070c b3c7f602 3307f700  ............3...
 10570 b7070200 23aee702 b7070200 03a78702  ....#...........
 10580 b7070200 23a6e702 b7070200 03a70706  ....#...........
 10590 b7070200 83a74704 3307f740 b7070200  ......G.3..@....
 105a0 23a4e704 b7070200 03a78704 b7070200  #...............
 105b0 83a7c704 3307f700 b7070200 83a70705  ....3...........
 105c0 b307f700 13d71740 b7070200 23a8e704  .......@....#...
 105d0 b7070200 03a78704 b7070200 83a7c704  ................
 105e0 3307f740 b7070200 23aae704 b7070200  3..@....#.......
 105f0 83a70706 13d73740 b7070200 83a6c70a  ......7@........
 10600 b7070200 83a78704 b386f602 b7070200  ................
 10610 83a7070b b3c7f602 3307f700 b7070200  ........3.......
 10620 83a6470b b7070200 83a70705 b386f602  ..G.............
 10630 b7070200 83a7870b b3c7f602 3307f700  ............3...
 10640 b7070200 83a6c70b b7070200 83a74705  ..............G.
 10650 b386f602 b7070200 83a7070c b3c7f602  ................
 10660 3307f700 b7070200 23aee704 b7070200  3.......#.......
 10670 03a78704 b7070200 23a6e704 b7070200  ........#.......
 10680 03a70708 b7070200 83a74706 3307f740  ..........G.3..@
 10690 b7070200 23a4e706 b7070200 03a78706  ....#...........
 106a0 b7070200 83a7c706 3307f700 b7070200  ........3.......
 106b0 83a70707 b307f700 13d71740 b7070200  ...........@....
 106c0 23a8e706 b7070200 03a78706 b7070200  #...............
 106d0 83a7c706 3307f740 b7070200 23aae706  ....3..@....#...
 106e0 b7070200 83a70708 13d73740 b7070200  ..........7@....
 106f0 83a6c70a b7070200 83a78706 b386f602  ................
 10700 b7070200 83a7070b b3c7f602 3307f700  ............3...
 10710 b7070200 83a6470b b7070200 83a70707  ......G.........
 10720 b386f602 b7070200 83a7870b b3c7f602  ................
 10730 3307f700 b7070200 83a6c70b b7070200  3...............
 10740 83a74707 b386f602 b7070200 83a7070c  ..G.............
 10750 b3c7f602 3307f700 b7070200 23aee706  ....3.......#...
 10760 b7070200 03a78706 b7070200 23a6e706  ............#...
 10770 b7070200 03a7c701 9307f00f 63dae700  ............c...
 10780 b7070200 1307f00f 23ace700 6f000003  ........#...o...
 10790 b7070200 83a7c701 6348f000 b7070200  ........cH......
 107a0 23ac0700 6f008001 b7070200 83a7c701  #...o...........
 107b0 13f7f70f b7070200 23ace700 b7070200  ........#.......
 107c0 03a7c703 9307f00f 63dae700 b7070200  ........c.......
 107d0 1307f00f 23ace702 6f000003 b7070200  ....#...o.......
 107e0 83a7c703 6348f000 b7070200 23ac0702  ....cH......#...
 107f0 6f008001 b7070200 83a7c703 13f7f70f  o...............
 10800 b7070200 23ace702 b7070200 03a7c705  ....#...........
 10810 9307f00f 63dae700 b7070200 1307f00f  ....c...........
 10820 23ace704 6f000003 b7070200 83a7c705  #...o...........
 10830 6348f000 b7070200 23ac0704 6f008001  cH......#...o...
 10840 b7070200 83a7c705 13f7f70f b7070200  ................
 10850 23ace704 b7070200 03a7c707 9307f00f  #...............
 10860 63dae700 b7070200 1307f00f 23ace706  c...........#...
 10870 6f000003 b7070200 83a7c707 6348f000  o...........cH..
 10880 b7070200 23ac0706 6f008001 b7070200  ....#...o.......
 10890 83a7c707 13f7f70f b7070200 23ace706  ............#...
 108a0 b7070200 83a78707 13978701 b7070200  ................
 108b0 83a78705 93970701 3307f700 b7070200  ........3.......
 108c0 83a78703 93978700 3307f700 b7070200  ........3.......
 108d0 83a78701 3307f700 b7070200 23aae708  ....3.......#...
 108e0 b7070200 03a74709 b7070200 83a7870a  ......G.........
 108f0 23a0e700 b7070200 83a7470a 93870720  #.........G.... 
 10900 13071000 23a0e700 6ff01f90 13850700  ....#...o.......
 10910 0324c101 13010102 67800000           .$......g...    
Contents of section .sdata:
 200a0 08000000 00000010 00000030 08000000  ...........0....
 200b0 01000000 05000000 01000000 0a000000  ................
 200c0 01000000                             ....            
Contents of section .comment:
 0000 4743433a 2028474e 55292037 2e312e31  GCC: (GNU) 7.1.1
 0010 20323031 37303530 3900                20170509.      

Disassembly of section .text0:

00000000 <_start>:
   0:	00000093          	li	ra,0
   4:	00000113          	li	sp,0
   8:	00000193          	li	gp,0
   c:	00000213          	li	tp,0
  10:	00000293          	li	t0,0
  14:	00000313          	li	t1,0
  18:	00000393          	li	t2,0
  1c:	00000413          	li	s0,0
  20:	00000493          	li	s1,0
  24:	00000513          	li	a0,0
  28:	00000593          	li	a1,0
  2c:	00000613          	li	a2,0
  30:	00000693          	li	a3,0
  34:	00000713          	li	a4,0
  38:	00000793          	li	a5,0
  3c:	00000813          	li	a6,0
  40:	00000893          	li	a7,0
  44:	00000913          	li	s2,0
  48:	00000993          	li	s3,0
  4c:	00000a13          	li	s4,0
  50:	00000a93          	li	s5,0
  54:	00000b13          	li	s6,0
  58:	00000b93          	li	s7,0
  5c:	00000c13          	li	s8,0
  60:	00000c93          	li	s9,0
  64:	00000d13          	li	s10,0
  68:	00000d93          	li	s11,0
  6c:	00000e13          	li	t3,0
  70:	00000e93          	li	t4,0
  74:	00000f13          	li	t5,0
  78:	00000f93          	li	t6,0
  7c:	00021197          	auipc	gp,0x21
  80:	82418193          	addi	gp,gp,-2012 # 208a0 <_gp>

00000084 <init_bss>:
  84:	00020517          	auipc	a0,0x20
  88:	04050513          	addi	a0,a0,64 # 200c4 <__sdata_end>
  8c:	00020597          	auipc	a1,0x20
  90:	03858593          	addi	a1,a1,56 # 200c4 <__sdata_end>
  94:	00000613          	li	a2,0
  98:	070000ef          	jal	ra,108 <fill_block>

0000009c <init_sbss>:
  9c:	00020517          	auipc	a0,0x20
  a0:	f6450513          	addi	a0,a0,-156 # 20000 <copy_count>
  a4:	00020597          	auipc	a1,0x20
  a8:	ff858593          	addi	a1,a1,-8 # 2009c <distance>
  ac:	00000613          	li	a2,0
  b0:	058000ef          	jal	ra,108 <fill_block>

000000b4 <write_stack_pattern>:
  b4:	00020517          	auipc	a0,0x20
  b8:	01450513          	addi	a0,a0,20 # 200c8 <__bss_end>
  bc:	00021597          	auipc	a1,0x21
  c0:	00858593          	addi	a1,a1,8 # 210c4 <_gp+0x824>
  c4:	00000613          	li	a2,0
  c8:	040000ef          	jal	ra,108 <fill_block>

000000cc <init_stack>:
  cc:	00021117          	auipc	sp,0x21
  d0:	ffc10113          	addi	sp,sp,-4 # 210c8 <__stack>

000000d4 <write_test_pattern>:
  d4:	20100517          	auipc	a0,0x20100
  d8:	f2c50513          	addi	a0,a0,-212 # 20100000 <_test_start>
  dc:	20101597          	auipc	a1,0x20101
  e0:	f2058593          	addi	a1,a1,-224 # 20100ffc <_test_start+0xffc>
  e4:	00000613          	li	a2,0
  e8:	020000ef          	jal	ra,108 <fill_block>

000000ec <SystemInit>:
  ec:	030000ef          	jal	ra,11c <boot>
  f0:	0bc100ef          	jal	ra,101ac <main>

000000f4 <SystemExit>:
  f4:	00030297          	auipc	t0,0x30
  f8:	f0828293          	addi	t0,t0,-248 # 2fffc <_sim_end>
  fc:	fff00313          	li	t1,-1
 100:	0062a023          	sw	t1,0(t0)

00000104 <dead_loop>:
 104:	0000006f          	j	104 <dead_loop>

00000108 <fill_block>:
 108:	00a5e863          	bltu	a1,a0,118 <fb_end>
 10c:	00c52023          	sw	a2,0(a0)
 110:	00450513          	addi	a0,a0,4
 114:	ff5ff06f          	j	108 <fill_block>

00000118 <fb_end>:
 118:	00008067          	ret

0000011c <boot>:
 11c:	fd010113          	addi	sp,sp,-48
 120:	02812623          	sw	s0,44(sp)
 124:	03010413          	addi	s0,sp,48
 128:	200007b7          	lui	a5,0x20000
 12c:	00078793          	mv	a5,a5
 130:	fef42023          	sw	a5,-32(s0)
 134:	fe042623          	sw	zero,-20(s0)
 138:	0400006f          	j	178 <boot+0x5c>
 13c:	fec42783          	lw	a5,-20(s0)
 140:	00279793          	slli	a5,a5,0x2
 144:	fe042703          	lw	a4,-32(s0)
 148:	00f707b3          	add	a5,a4,a5
 14c:	0007a683          	lw	a3,0(a5) # 20000000 <_dram_i_start>
 150:	fec42783          	lw	a5,-20(s0)
 154:	00279713          	slli	a4,a5,0x2
 158:	000107b7          	lui	a5,0x10
 15c:	00078793          	mv	a5,a5
 160:	00f707b3          	add	a5,a4,a5
 164:	00068713          	mv	a4,a3
 168:	00e7a023          	sw	a4,0(a5) # 10000 <_imem_start>
 16c:	fec42783          	lw	a5,-20(s0)
 170:	00178793          	addi	a5,a5,1
 174:	fef42623          	sw	a5,-20(s0)
 178:	200017b7          	lui	a5,0x20001
 17c:	91c78713          	addi	a4,a5,-1764 # 2000091c <_dram_i_end>
 180:	200007b7          	lui	a5,0x20000
 184:	00078793          	mv	a5,a5
 188:	40f707b3          	sub	a5,a4,a5
 18c:	4027d793          	srai	a5,a5,0x2
 190:	00078713          	mv	a4,a5
 194:	fec42783          	lw	a5,-20(s0)
 198:	faf752e3          	ble	a5,a4,13c <boot+0x20>
 19c:	201017b7          	lui	a5,0x20101
 1a0:	02478793          	addi	a5,a5,36 # 20101024 <__data_paddr_start>
 1a4:	fcf42e23          	sw	a5,-36(s0)
 1a8:	fe042423          	sw	zero,-24(s0)
 1ac:	0400006f          	j	1ec <boot+0xd0>
 1b0:	fe842783          	lw	a5,-24(s0)
 1b4:	00279793          	slli	a5,a5,0x2
 1b8:	fdc42703          	lw	a4,-36(s0)
 1bc:	00f707b3          	add	a5,a4,a5
 1c0:	0007a683          	lw	a3,0(a5)
 1c4:	fe842783          	lw	a5,-24(s0)
 1c8:	00279713          	slli	a4,a5,0x2
 1cc:	000207b7          	lui	a5,0x20
 1d0:	0c478793          	addi	a5,a5,196 # 200c4 <__sdata_end>
 1d4:	00f707b3          	add	a5,a4,a5
 1d8:	00068713          	mv	a4,a3
 1dc:	00e7a023          	sw	a4,0(a5)
 1e0:	fe842783          	lw	a5,-24(s0)
 1e4:	00178793          	addi	a5,a5,1
 1e8:	fef42423          	sw	a5,-24(s0)
 1ec:	000207b7          	lui	a5,0x20
 1f0:	0c478713          	addi	a4,a5,196 # 200c4 <__sdata_end>
 1f4:	000207b7          	lui	a5,0x20
 1f8:	0c478793          	addi	a5,a5,196 # 200c4 <__sdata_end>
 1fc:	40f707b3          	sub	a5,a4,a5
 200:	4027d793          	srai	a5,a5,0x2
 204:	00078713          	mv	a4,a5
 208:	fe842783          	lw	a5,-24(s0)
 20c:	faf752e3          	ble	a5,a4,1b0 <boot+0x94>
 210:	201017b7          	lui	a5,0x20101
 214:	00078793          	mv	a5,a5
 218:	fcf42c23          	sw	a5,-40(s0)
 21c:	fe042223          	sw	zero,-28(s0)
 220:	0400006f          	j	260 <boot+0x144>
 224:	fe442783          	lw	a5,-28(s0)
 228:	00279793          	slli	a5,a5,0x2
 22c:	fd842703          	lw	a4,-40(s0)
 230:	00f707b3          	add	a5,a4,a5
 234:	0007a683          	lw	a3,0(a5) # 20101000 <__sdata_paddr_start>
 238:	fe442783          	lw	a5,-28(s0)
 23c:	00279713          	slli	a4,a5,0x2
 240:	000207b7          	lui	a5,0x20
 244:	0a078793          	addi	a5,a5,160 # 200a0 <__sbss_end>
 248:	00f707b3          	add	a5,a4,a5
 24c:	00068713          	mv	a4,a3
 250:	00e7a023          	sw	a4,0(a5)
 254:	fe442783          	lw	a5,-28(s0)
 258:	00178793          	addi	a5,a5,1
 25c:	fef42223          	sw	a5,-28(s0)
 260:	000207b7          	lui	a5,0x20
 264:	0c478713          	addi	a4,a5,196 # 200c4 <__sdata_end>
 268:	000207b7          	lui	a5,0x20
 26c:	0a078793          	addi	a5,a5,160 # 200a0 <__sbss_end>
 270:	40f707b3          	sub	a5,a4,a5
 274:	4027d793          	srai	a5,a5,0x2
 278:	00078713          	mv	a4,a5
 27c:	fe442783          	lw	a5,-28(s0)
 280:	faf752e3          	ble	a5,a4,224 <boot+0x108>
 284:	00000013          	nop
 288:	02c12403          	lw	s0,44(sp)
 28c:	03010113          	addi	sp,sp,48
 290:	00008067          	ret

Disassembly of section .text1:

00010000 <_imem_start>:
   10000:	f8410113          	addi	sp,sp,-124
   10004:	00112023          	sw	ra,0(sp)
   10008:	00212223          	sw	sp,4(sp)
   1000c:	00312423          	sw	gp,8(sp)
   10010:	00412623          	sw	tp,12(sp)
   10014:	00512823          	sw	t0,16(sp)
   10018:	00612a23          	sw	t1,20(sp)
   1001c:	00712c23          	sw	t2,24(sp)
   10020:	00812e23          	sw	s0,28(sp)
   10024:	02912023          	sw	s1,32(sp)
   10028:	02a12223          	sw	a0,36(sp)
   1002c:	02b12423          	sw	a1,40(sp)
   10030:	02c12623          	sw	a2,44(sp)
   10034:	02d12823          	sw	a3,48(sp)
   10038:	02e12a23          	sw	a4,52(sp)
   1003c:	02f12c23          	sw	a5,56(sp)
   10040:	03012e23          	sw	a6,60(sp)
   10044:	05112023          	sw	a7,64(sp)
   10048:	05212223          	sw	s2,68(sp)
   1004c:	05312423          	sw	s3,72(sp)
   10050:	05412623          	sw	s4,76(sp)
   10054:	05512823          	sw	s5,80(sp)
   10058:	05612a23          	sw	s6,84(sp)
   1005c:	05712c23          	sw	s7,88(sp)
   10060:	05812e23          	sw	s8,92(sp)
   10064:	07912023          	sw	s9,96(sp)
   10068:	07a12223          	sw	s10,100(sp)
   1006c:	07b12423          	sw	s11,104(sp)
   10070:	07c12623          	sw	t3,108(sp)
   10074:	07d12823          	sw	t4,112(sp)
   10078:	07e12a23          	sw	t5,116(sp)
   1007c:	07f12c23          	sw	t6,120(sp)
   10080:	088000ef          	jal	ra,10108 <copy>
   10084:	00012083          	lw	ra,0(sp)
   10088:	00412103          	lw	sp,4(sp)
   1008c:	00812183          	lw	gp,8(sp)
   10090:	00c12203          	lw	tp,12(sp)
   10094:	01012283          	lw	t0,16(sp)
   10098:	01412303          	lw	t1,20(sp)
   1009c:	01812383          	lw	t2,24(sp)
   100a0:	01c12403          	lw	s0,28(sp)
   100a4:	02012483          	lw	s1,32(sp)
   100a8:	02412503          	lw	a0,36(sp)
   100ac:	02812583          	lw	a1,40(sp)
   100b0:	02c12603          	lw	a2,44(sp)
   100b4:	03012683          	lw	a3,48(sp)
   100b8:	03412703          	lw	a4,52(sp)
   100bc:	03812783          	lw	a5,56(sp)
   100c0:	03c12803          	lw	a6,60(sp)
   100c4:	04012883          	lw	a7,64(sp)
   100c8:	04412903          	lw	s2,68(sp)
   100cc:	04812983          	lw	s3,72(sp)
   100d0:	04c12a03          	lw	s4,76(sp)
   100d4:	05012a83          	lw	s5,80(sp)
   100d8:	05412b03          	lw	s6,84(sp)
   100dc:	05812b83          	lw	s7,88(sp)
   100e0:	05c12c03          	lw	s8,92(sp)
   100e4:	06012c83          	lw	s9,96(sp)
   100e8:	06412d03          	lw	s10,100(sp)
   100ec:	06812d83          	lw	s11,104(sp)
   100f0:	06c12e03          	lw	t3,108(sp)
   100f4:	07012e83          	lw	t4,112(sp)
   100f8:	07412f03          	lw	t5,116(sp)
   100fc:	07812f83          	lw	t6,120(sp)
   10100:	07c10113          	addi	sp,sp,124
   10104:	30200073          	mret

00010108 <copy>:
   10108:	fe010113          	addi	sp,sp,-32
   1010c:	00812e23          	sw	s0,28(sp)
   10110:	02010413          	addi	s0,sp,32
   10114:	fe042623          	sw	zero,-20(s0)
   10118:	0400006f          	j	10158 <copy+0x50>
   1011c:	000207b7          	lui	a5,0x20
   10120:	0a47a703          	lw	a4,164(a5) # 200a4 <sensor_addr>
   10124:	fec42783          	lw	a5,-20(s0)
   10128:	00279793          	slli	a5,a5,0x2
   1012c:	00f70733          	add	a4,a4,a5
   10130:	000207b7          	lui	a5,0x20
   10134:	0c47a683          	lw	a3,196(a5) # 200c4 <__sdata_end>
   10138:	fec42783          	lw	a5,-20(s0)
   1013c:	00279793          	slli	a5,a5,0x2
   10140:	00f687b3          	add	a5,a3,a5
   10144:	00072703          	lw	a4,0(a4)
   10148:	00e7a023          	sw	a4,0(a5)
   1014c:	fec42783          	lw	a5,-20(s0)
   10150:	00178793          	addi	a5,a5,1
   10154:	fef42623          	sw	a5,-20(s0)
   10158:	fec42703          	lw	a4,-20(s0)
   1015c:	00800793          	li	a5,8
   10160:	faf76ee3          	bltu	a4,a5,1011c <copy+0x14>
   10164:	000207b7          	lui	a5,0x20
   10168:	0c47a703          	lw	a4,196(a5) # 200c4 <__sdata_end>
   1016c:	00800793          	li	a5,8
   10170:	00279793          	slli	a5,a5,0x2
   10174:	00f70733          	add	a4,a4,a5
   10178:	000207b7          	lui	a5,0x20
   1017c:	0ce7a223          	sw	a4,196(a5) # 200c4 <__sdata_end>
   10180:	000207b7          	lui	a5,0x20
   10184:	0007a783          	lw	a5,0(a5) # 20000 <copy_count>
   10188:	00178713          	addi	a4,a5,1
   1018c:	000207b7          	lui	a5,0x20
   10190:	00e7a023          	sw	a4,0(a5) # 20000 <copy_count>
   10194:	08000f93          	li	t6,128
   10198:	300fb073          	csrc	mstatus,t6
   1019c:	00000013          	nop
   101a0:	01c12403          	lw	s0,28(sp)
   101a4:	02010113          	addi	sp,sp,32
   101a8:	00008067          	ret

000101ac <main>:
   101ac:	fe010113          	addi	sp,sp,-32
   101b0:	00812e23          	sw	s0,28(sp)
   101b4:	02010413          	addi	s0,sp,32
   101b8:	201007b7          	lui	a5,0x20100
   101bc:	00078793          	mv	a5,a5
   101c0:	fef42623          	sw	a5,-20(s0)
   101c4:	201007b7          	lui	a5,0x20100
   101c8:	00078793          	mv	a5,a5
   101cc:	fef42423          	sw	a5,-24(s0)
   101d0:	fe042223          	sw	zero,-28(s0)
   101d4:	000207b7          	lui	a5,0x20
   101d8:	20100737          	lui	a4,0x20100
   101dc:	00070713          	mv	a4,a4
   101e0:	0ce7a223          	sw	a4,196(a5) # 200c4 <__sdata_end>
   101e4:	30046073          	csrsi	mstatus,8
   101e8:	00001fb7          	lui	t6,0x1
   101ec:	800f8f93          	addi	t6,t6,-2048 # 800 <boot+0x6e4>
   101f0:	304fa073          	csrs	mie,t6
   101f4:	000207b7          	lui	a5,0x20
   101f8:	0a47a783          	lw	a5,164(a5) # 200a4 <sensor_addr>
   101fc:	10078793          	addi	a5,a5,256
   10200:	00100713          	li	a4,1
   10204:	00e7a023          	sw	a4,0(a5)
   10208:	000207b7          	lui	a5,0x20
   1020c:	0987a783          	lw	a5,152(a5) # 20098 <counter>
   10210:	00178713          	addi	a4,a5,1
   10214:	000207b7          	lui	a5,0x20
   10218:	08e7ac23          	sw	a4,152(a5) # 20098 <counter>
   1021c:	000207b7          	lui	a5,0x20
   10220:	0987a703          	lw	a4,152(a5) # 20098 <counter>
   10224:	1dcd67b7          	lui	a5,0x1dcd6
   10228:	50078793          	addi	a5,a5,1280 # 1dcd6500 <_end+0x1dca6500>
   1022c:	02e7d063          	ble	a4,a5,1024c <main+0xa0>
   10230:	000207b7          	lui	a5,0x20
   10234:	0a47a783          	lw	a5,164(a5) # 200a4 <sensor_addr>
   10238:	20078793          	addi	a5,a5,512
   1023c:	00100713          	li	a4,1
   10240:	00e7a023          	sw	a4,0(a5)
   10244:	00000793          	li	a5,0
   10248:	6c40006f          	j	1090c <main+0x760>
   1024c:	000207b7          	lui	a5,0x20
   10250:	fe842703          	lw	a4,-24(s0)
   10254:	0ce7a223          	sw	a4,196(a5) # 200c4 <__sdata_end>
   10258:	10500073          	wfi
   1025c:	fec42783          	lw	a5,-20(s0)
   10260:	0007a703          	lw	a4,0(a5)
   10264:	000207b7          	lui	a5,0x20
   10268:	00e7a223          	sw	a4,4(a5) # 20004 <motor1_Vsens>
   1026c:	fec42783          	lw	a5,-20(s0)
   10270:	0047a703          	lw	a4,4(a5)
   10274:	000207b7          	lui	a5,0x20
   10278:	02e7a223          	sw	a4,36(a5) # 20024 <motor2_Vsens>
   1027c:	fec42783          	lw	a5,-20(s0)
   10280:	0087a703          	lw	a4,8(a5)
   10284:	000207b7          	lui	a5,0x20
   10288:	04e7a223          	sw	a4,68(a5) # 20044 <motor3_Vsens>
   1028c:	fec42783          	lw	a5,-20(s0)
   10290:	00c7a703          	lw	a4,12(a5)
   10294:	000207b7          	lui	a5,0x20
   10298:	06e7a223          	sw	a4,100(a5) # 20064 <motor4_Vsens>
   1029c:	fec42783          	lw	a5,-20(s0)
   102a0:	0107a703          	lw	a4,16(a5)
   102a4:	000207b7          	lui	a5,0x20
   102a8:	08e7a223          	sw	a4,132(a5) # 20084 <initial_vel>
   102ac:	fec42783          	lw	a5,-20(s0)
   102b0:	0147a703          	lw	a4,20(a5)
   102b4:	000207b7          	lui	a5,0x20
   102b8:	08e7a423          	sw	a4,136(a5) # 20088 <x_value>
   102bc:	fec42783          	lw	a5,-20(s0)
   102c0:	0187a703          	lw	a4,24(a5)
   102c4:	000207b7          	lui	a5,0x20
   102c8:	08e7a623          	sw	a4,140(a5) # 2008c <y_value>
   102cc:	fec42783          	lw	a5,-20(s0)
   102d0:	01c7a703          	lw	a4,28(a5)
   102d4:	000207b7          	lui	a5,0x20
   102d8:	08e7ae23          	sw	a4,156(a5) # 2009c <distance>
   102dc:	000207b7          	lui	a5,0x20
   102e0:	09c7a703          	lw	a4,156(a5) # 2009c <distance>
   102e4:	01900793          	li	a5,25
   102e8:	00e7c863          	blt	a5,a4,102f8 <main+0x14c>
   102ec:	000207b7          	lui	a5,0x20
   102f0:	ffb00713          	li	a4,-5
   102f4:	08e7a623          	sw	a4,140(a5) # 2008c <y_value>
   102f8:	000207b7          	lui	a5,0x20
   102fc:	0847a703          	lw	a4,132(a5) # 20084 <initial_vel>
   10300:	000207b7          	lui	a5,0x20
   10304:	0887a783          	lw	a5,136(a5) # 20088 <x_value>
   10308:	40f70733          	sub	a4,a4,a5
   1030c:	000207b7          	lui	a5,0x20
   10310:	08c7a783          	lw	a5,140(a5) # 2008c <y_value>
   10314:	40f70733          	sub	a4,a4,a5
   10318:	000207b7          	lui	a5,0x20
   1031c:	02e7a023          	sw	a4,32(a5) # 20020 <motor1_Vref>
   10320:	000207b7          	lui	a5,0x20
   10324:	0847a703          	lw	a4,132(a5) # 20084 <initial_vel>
   10328:	000207b7          	lui	a5,0x20
   1032c:	0887a783          	lw	a5,136(a5) # 20088 <x_value>
   10330:	00f70733          	add	a4,a4,a5
   10334:	000207b7          	lui	a5,0x20
   10338:	08c7a783          	lw	a5,140(a5) # 2008c <y_value>
   1033c:	40f70733          	sub	a4,a4,a5
   10340:	000207b7          	lui	a5,0x20
   10344:	04e7a023          	sw	a4,64(a5) # 20040 <motor2_Vref>
   10348:	000207b7          	lui	a5,0x20
   1034c:	0847a703          	lw	a4,132(a5) # 20084 <initial_vel>
   10350:	000207b7          	lui	a5,0x20
   10354:	0887a783          	lw	a5,136(a5) # 20088 <x_value>
   10358:	00f70733          	add	a4,a4,a5
   1035c:	000207b7          	lui	a5,0x20
   10360:	08c7a783          	lw	a5,140(a5) # 2008c <y_value>
   10364:	00f70733          	add	a4,a4,a5
   10368:	000207b7          	lui	a5,0x20
   1036c:	06e7a023          	sw	a4,96(a5) # 20060 <motor3_Vref>
   10370:	000207b7          	lui	a5,0x20
   10374:	0847a703          	lw	a4,132(a5) # 20084 <initial_vel>
   10378:	000207b7          	lui	a5,0x20
   1037c:	0887a783          	lw	a5,136(a5) # 20088 <x_value>
   10380:	40f70733          	sub	a4,a4,a5
   10384:	000207b7          	lui	a5,0x20
   10388:	08c7a783          	lw	a5,140(a5) # 2008c <y_value>
   1038c:	00f70733          	add	a4,a4,a5
   10390:	000207b7          	lui	a5,0x20
   10394:	08e7a023          	sw	a4,128(a5) # 20080 <motor4_Vref>
   10398:	fe842783          	lw	a5,-24(s0)
   1039c:	fef42623          	sw	a5,-20(s0)
   103a0:	000207b7          	lui	a5,0x20
   103a4:	0207a703          	lw	a4,32(a5) # 20020 <motor1_Vref>
   103a8:	000207b7          	lui	a5,0x20
   103ac:	0047a783          	lw	a5,4(a5) # 20004 <motor1_Vsens>
   103b0:	40f70733          	sub	a4,a4,a5
   103b4:	000207b7          	lui	a5,0x20
   103b8:	00e7a423          	sw	a4,8(a5) # 20008 <motor1_err>
   103bc:	000207b7          	lui	a5,0x20
   103c0:	0087a703          	lw	a4,8(a5) # 20008 <motor1_err>
   103c4:	000207b7          	lui	a5,0x20
   103c8:	00c7a783          	lw	a5,12(a5) # 2000c <motor1_err_prev>
   103cc:	00f70733          	add	a4,a4,a5
   103d0:	000207b7          	lui	a5,0x20
   103d4:	0107a783          	lw	a5,16(a5) # 20010 <motor1_integral>
   103d8:	00f707b3          	add	a5,a4,a5
   103dc:	4017d713          	srai	a4,a5,0x1
   103e0:	000207b7          	lui	a5,0x20
   103e4:	00e7a823          	sw	a4,16(a5) # 20010 <motor1_integral>
   103e8:	000207b7          	lui	a5,0x20
   103ec:	0087a703          	lw	a4,8(a5) # 20008 <motor1_err>
   103f0:	000207b7          	lui	a5,0x20
   103f4:	00c7a783          	lw	a5,12(a5) # 2000c <motor1_err_prev>
   103f8:	40f70733          	sub	a4,a4,a5
   103fc:	000207b7          	lui	a5,0x20
   10400:	00e7aa23          	sw	a4,20(a5) # 20014 <motor1_derivative>
   10404:	000207b7          	lui	a5,0x20
   10408:	0207a783          	lw	a5,32(a5) # 20020 <motor1_Vref>
   1040c:	4037d713          	srai	a4,a5,0x3
   10410:	000207b7          	lui	a5,0x20
   10414:	0ac7a683          	lw	a3,172(a5) # 200ac <motor_kp_mul>
   10418:	000207b7          	lui	a5,0x20
   1041c:	0087a783          	lw	a5,8(a5) # 20008 <motor1_err>
   10420:	02f686b3          	mul	a3,a3,a5
   10424:	000207b7          	lui	a5,0x20
   10428:	0b07a783          	lw	a5,176(a5) # 200b0 <motor_kp_div>
   1042c:	02f6c7b3          	div	a5,a3,a5
   10430:	00f70733          	add	a4,a4,a5
   10434:	000207b7          	lui	a5,0x20
   10438:	0b47a683          	lw	a3,180(a5) # 200b4 <motor_ki_mul>
   1043c:	000207b7          	lui	a5,0x20
   10440:	0107a783          	lw	a5,16(a5) # 20010 <motor1_integral>
   10444:	02f686b3          	mul	a3,a3,a5
   10448:	000207b7          	lui	a5,0x20
   1044c:	0b87a783          	lw	a5,184(a5) # 200b8 <motor_ki_div>
   10450:	02f6c7b3          	div	a5,a3,a5
   10454:	00f70733          	add	a4,a4,a5
   10458:	000207b7          	lui	a5,0x20
   1045c:	0bc7a683          	lw	a3,188(a5) # 200bc <motor_kd_mul>
   10460:	000207b7          	lui	a5,0x20
   10464:	0147a783          	lw	a5,20(a5) # 20014 <motor1_derivative>
   10468:	02f686b3          	mul	a3,a3,a5
   1046c:	000207b7          	lui	a5,0x20
   10470:	0c07a783          	lw	a5,192(a5) # 200c0 <motor_kd_div>
   10474:	02f6c7b3          	div	a5,a3,a5
   10478:	00f70733          	add	a4,a4,a5
   1047c:	000207b7          	lui	a5,0x20
   10480:	00e7ae23          	sw	a4,28(a5) # 2001c <motor1_Vcomp_temp>
   10484:	000207b7          	lui	a5,0x20
   10488:	0087a703          	lw	a4,8(a5) # 20008 <motor1_err>
   1048c:	000207b7          	lui	a5,0x20
   10490:	00e7a623          	sw	a4,12(a5) # 2000c <motor1_err_prev>
   10494:	000207b7          	lui	a5,0x20
   10498:	0407a703          	lw	a4,64(a5) # 20040 <motor2_Vref>
   1049c:	000207b7          	lui	a5,0x20
   104a0:	0247a783          	lw	a5,36(a5) # 20024 <motor2_Vsens>
   104a4:	40f70733          	sub	a4,a4,a5
   104a8:	000207b7          	lui	a5,0x20
   104ac:	02e7a423          	sw	a4,40(a5) # 20028 <motor2_err>
   104b0:	000207b7          	lui	a5,0x20
   104b4:	0287a703          	lw	a4,40(a5) # 20028 <motor2_err>
   104b8:	000207b7          	lui	a5,0x20
   104bc:	02c7a783          	lw	a5,44(a5) # 2002c <motor2_err_prev>
   104c0:	00f70733          	add	a4,a4,a5
   104c4:	000207b7          	lui	a5,0x20
   104c8:	0307a783          	lw	a5,48(a5) # 20030 <motor2_integral>
   104cc:	00f707b3          	add	a5,a4,a5
   104d0:	4017d713          	srai	a4,a5,0x1
   104d4:	000207b7          	lui	a5,0x20
   104d8:	02e7a823          	sw	a4,48(a5) # 20030 <motor2_integral>
   104dc:	000207b7          	lui	a5,0x20
   104e0:	0287a703          	lw	a4,40(a5) # 20028 <motor2_err>
   104e4:	000207b7          	lui	a5,0x20
   104e8:	02c7a783          	lw	a5,44(a5) # 2002c <motor2_err_prev>
   104ec:	40f70733          	sub	a4,a4,a5
   104f0:	000207b7          	lui	a5,0x20
   104f4:	02e7aa23          	sw	a4,52(a5) # 20034 <motor2_derivative>
   104f8:	000207b7          	lui	a5,0x20
   104fc:	0407a783          	lw	a5,64(a5) # 20040 <motor2_Vref>
   10500:	4037d713          	srai	a4,a5,0x3
   10504:	000207b7          	lui	a5,0x20
   10508:	0ac7a683          	lw	a3,172(a5) # 200ac <motor_kp_mul>
   1050c:	000207b7          	lui	a5,0x20
   10510:	0287a783          	lw	a5,40(a5) # 20028 <motor2_err>
   10514:	02f686b3          	mul	a3,a3,a5
   10518:	000207b7          	lui	a5,0x20
   1051c:	0b07a783          	lw	a5,176(a5) # 200b0 <motor_kp_div>
   10520:	02f6c7b3          	div	a5,a3,a5
   10524:	00f70733          	add	a4,a4,a5
   10528:	000207b7          	lui	a5,0x20
   1052c:	0b47a683          	lw	a3,180(a5) # 200b4 <motor_ki_mul>
   10530:	000207b7          	lui	a5,0x20
   10534:	0307a783          	lw	a5,48(a5) # 20030 <motor2_integral>
   10538:	02f686b3          	mul	a3,a3,a5
   1053c:	000207b7          	lui	a5,0x20
   10540:	0b87a783          	lw	a5,184(a5) # 200b8 <motor_ki_div>
   10544:	02f6c7b3          	div	a5,a3,a5
   10548:	00f70733          	add	a4,a4,a5
   1054c:	000207b7          	lui	a5,0x20
   10550:	0bc7a683          	lw	a3,188(a5) # 200bc <motor_kd_mul>
   10554:	000207b7          	lui	a5,0x20
   10558:	0347a783          	lw	a5,52(a5) # 20034 <motor2_derivative>
   1055c:	02f686b3          	mul	a3,a3,a5
   10560:	000207b7          	lui	a5,0x20
   10564:	0c07a783          	lw	a5,192(a5) # 200c0 <motor_kd_div>
   10568:	02f6c7b3          	div	a5,a3,a5
   1056c:	00f70733          	add	a4,a4,a5
   10570:	000207b7          	lui	a5,0x20
   10574:	02e7ae23          	sw	a4,60(a5) # 2003c <motor2_Vcomp_temp>
   10578:	000207b7          	lui	a5,0x20
   1057c:	0287a703          	lw	a4,40(a5) # 20028 <motor2_err>
   10580:	000207b7          	lui	a5,0x20
   10584:	02e7a623          	sw	a4,44(a5) # 2002c <motor2_err_prev>
   10588:	000207b7          	lui	a5,0x20
   1058c:	0607a703          	lw	a4,96(a5) # 20060 <motor3_Vref>
   10590:	000207b7          	lui	a5,0x20
   10594:	0447a783          	lw	a5,68(a5) # 20044 <motor3_Vsens>
   10598:	40f70733          	sub	a4,a4,a5
   1059c:	000207b7          	lui	a5,0x20
   105a0:	04e7a423          	sw	a4,72(a5) # 20048 <motor3_err>
   105a4:	000207b7          	lui	a5,0x20
   105a8:	0487a703          	lw	a4,72(a5) # 20048 <motor3_err>
   105ac:	000207b7          	lui	a5,0x20
   105b0:	04c7a783          	lw	a5,76(a5) # 2004c <motor3_err_prev>
   105b4:	00f70733          	add	a4,a4,a5
   105b8:	000207b7          	lui	a5,0x20
   105bc:	0507a783          	lw	a5,80(a5) # 20050 <motor3_integral>
   105c0:	00f707b3          	add	a5,a4,a5
   105c4:	4017d713          	srai	a4,a5,0x1
   105c8:	000207b7          	lui	a5,0x20
   105cc:	04e7a823          	sw	a4,80(a5) # 20050 <motor3_integral>
   105d0:	000207b7          	lui	a5,0x20
   105d4:	0487a703          	lw	a4,72(a5) # 20048 <motor3_err>
   105d8:	000207b7          	lui	a5,0x20
   105dc:	04c7a783          	lw	a5,76(a5) # 2004c <motor3_err_prev>
   105e0:	40f70733          	sub	a4,a4,a5
   105e4:	000207b7          	lui	a5,0x20
   105e8:	04e7aa23          	sw	a4,84(a5) # 20054 <motor3_derivative>
   105ec:	000207b7          	lui	a5,0x20
   105f0:	0607a783          	lw	a5,96(a5) # 20060 <motor3_Vref>
   105f4:	4037d713          	srai	a4,a5,0x3
   105f8:	000207b7          	lui	a5,0x20
   105fc:	0ac7a683          	lw	a3,172(a5) # 200ac <motor_kp_mul>
   10600:	000207b7          	lui	a5,0x20
   10604:	0487a783          	lw	a5,72(a5) # 20048 <motor3_err>
   10608:	02f686b3          	mul	a3,a3,a5
   1060c:	000207b7          	lui	a5,0x20
   10610:	0b07a783          	lw	a5,176(a5) # 200b0 <motor_kp_div>
   10614:	02f6c7b3          	div	a5,a3,a5
   10618:	00f70733          	add	a4,a4,a5
   1061c:	000207b7          	lui	a5,0x20
   10620:	0b47a683          	lw	a3,180(a5) # 200b4 <motor_ki_mul>
   10624:	000207b7          	lui	a5,0x20
   10628:	0507a783          	lw	a5,80(a5) # 20050 <motor3_integral>
   1062c:	02f686b3          	mul	a3,a3,a5
   10630:	000207b7          	lui	a5,0x20
   10634:	0b87a783          	lw	a5,184(a5) # 200b8 <motor_ki_div>
   10638:	02f6c7b3          	div	a5,a3,a5
   1063c:	00f70733          	add	a4,a4,a5
   10640:	000207b7          	lui	a5,0x20
   10644:	0bc7a683          	lw	a3,188(a5) # 200bc <motor_kd_mul>
   10648:	000207b7          	lui	a5,0x20
   1064c:	0547a783          	lw	a5,84(a5) # 20054 <motor3_derivative>
   10650:	02f686b3          	mul	a3,a3,a5
   10654:	000207b7          	lui	a5,0x20
   10658:	0c07a783          	lw	a5,192(a5) # 200c0 <motor_kd_div>
   1065c:	02f6c7b3          	div	a5,a3,a5
   10660:	00f70733          	add	a4,a4,a5
   10664:	000207b7          	lui	a5,0x20
   10668:	04e7ae23          	sw	a4,92(a5) # 2005c <motor3_Vcomp_temp>
   1066c:	000207b7          	lui	a5,0x20
   10670:	0487a703          	lw	a4,72(a5) # 20048 <motor3_err>
   10674:	000207b7          	lui	a5,0x20
   10678:	04e7a623          	sw	a4,76(a5) # 2004c <motor3_err_prev>
   1067c:	000207b7          	lui	a5,0x20
   10680:	0807a703          	lw	a4,128(a5) # 20080 <motor4_Vref>
   10684:	000207b7          	lui	a5,0x20
   10688:	0647a783          	lw	a5,100(a5) # 20064 <motor4_Vsens>
   1068c:	40f70733          	sub	a4,a4,a5
   10690:	000207b7          	lui	a5,0x20
   10694:	06e7a423          	sw	a4,104(a5) # 20068 <motor4_err>
   10698:	000207b7          	lui	a5,0x20
   1069c:	0687a703          	lw	a4,104(a5) # 20068 <motor4_err>
   106a0:	000207b7          	lui	a5,0x20
   106a4:	06c7a783          	lw	a5,108(a5) # 2006c <motor4_err_prev>
   106a8:	00f70733          	add	a4,a4,a5
   106ac:	000207b7          	lui	a5,0x20
   106b0:	0707a783          	lw	a5,112(a5) # 20070 <motor4_integral>
   106b4:	00f707b3          	add	a5,a4,a5
   106b8:	4017d713          	srai	a4,a5,0x1
   106bc:	000207b7          	lui	a5,0x20
   106c0:	06e7a823          	sw	a4,112(a5) # 20070 <motor4_integral>
   106c4:	000207b7          	lui	a5,0x20
   106c8:	0687a703          	lw	a4,104(a5) # 20068 <motor4_err>
   106cc:	000207b7          	lui	a5,0x20
   106d0:	06c7a783          	lw	a5,108(a5) # 2006c <motor4_err_prev>
   106d4:	40f70733          	sub	a4,a4,a5
   106d8:	000207b7          	lui	a5,0x20
   106dc:	06e7aa23          	sw	a4,116(a5) # 20074 <motor4_derivative>
   106e0:	000207b7          	lui	a5,0x20
   106e4:	0807a783          	lw	a5,128(a5) # 20080 <motor4_Vref>
   106e8:	4037d713          	srai	a4,a5,0x3
   106ec:	000207b7          	lui	a5,0x20
   106f0:	0ac7a683          	lw	a3,172(a5) # 200ac <motor_kp_mul>
   106f4:	000207b7          	lui	a5,0x20
   106f8:	0687a783          	lw	a5,104(a5) # 20068 <motor4_err>
   106fc:	02f686b3          	mul	a3,a3,a5
   10700:	000207b7          	lui	a5,0x20
   10704:	0b07a783          	lw	a5,176(a5) # 200b0 <motor_kp_div>
   10708:	02f6c7b3          	div	a5,a3,a5
   1070c:	00f70733          	add	a4,a4,a5
   10710:	000207b7          	lui	a5,0x20
   10714:	0b47a683          	lw	a3,180(a5) # 200b4 <motor_ki_mul>
   10718:	000207b7          	lui	a5,0x20
   1071c:	0707a783          	lw	a5,112(a5) # 20070 <motor4_integral>
   10720:	02f686b3          	mul	a3,a3,a5
   10724:	000207b7          	lui	a5,0x20
   10728:	0b87a783          	lw	a5,184(a5) # 200b8 <motor_ki_div>
   1072c:	02f6c7b3          	div	a5,a3,a5
   10730:	00f70733          	add	a4,a4,a5
   10734:	000207b7          	lui	a5,0x20
   10738:	0bc7a683          	lw	a3,188(a5) # 200bc <motor_kd_mul>
   1073c:	000207b7          	lui	a5,0x20
   10740:	0747a783          	lw	a5,116(a5) # 20074 <motor4_derivative>
   10744:	02f686b3          	mul	a3,a3,a5
   10748:	000207b7          	lui	a5,0x20
   1074c:	0c07a783          	lw	a5,192(a5) # 200c0 <motor_kd_div>
   10750:	02f6c7b3          	div	a5,a3,a5
   10754:	00f70733          	add	a4,a4,a5
   10758:	000207b7          	lui	a5,0x20
   1075c:	06e7ae23          	sw	a4,124(a5) # 2007c <motor4_Vcomp_temp>
   10760:	000207b7          	lui	a5,0x20
   10764:	0687a703          	lw	a4,104(a5) # 20068 <motor4_err>
   10768:	000207b7          	lui	a5,0x20
   1076c:	06e7a623          	sw	a4,108(a5) # 2006c <motor4_err_prev>
   10770:	000207b7          	lui	a5,0x20
   10774:	01c7a703          	lw	a4,28(a5) # 2001c <motor1_Vcomp_temp>
   10778:	0ff00793          	li	a5,255
   1077c:	00e7da63          	ble	a4,a5,10790 <main+0x5e4>
   10780:	000207b7          	lui	a5,0x20
   10784:	0ff00713          	li	a4,255
   10788:	00e7ac23          	sw	a4,24(a5) # 20018 <motor1_Vcomp>
   1078c:	0300006f          	j	107bc <main+0x610>
   10790:	000207b7          	lui	a5,0x20
   10794:	01c7a783          	lw	a5,28(a5) # 2001c <motor1_Vcomp_temp>
   10798:	00f04863          	bgtz	a5,107a8 <main+0x5fc>
   1079c:	000207b7          	lui	a5,0x20
   107a0:	0007ac23          	sw	zero,24(a5) # 20018 <motor1_Vcomp>
   107a4:	0180006f          	j	107bc <main+0x610>
   107a8:	000207b7          	lui	a5,0x20
   107ac:	01c7a783          	lw	a5,28(a5) # 2001c <motor1_Vcomp_temp>
   107b0:	0ff7f713          	andi	a4,a5,255
   107b4:	000207b7          	lui	a5,0x20
   107b8:	00e7ac23          	sw	a4,24(a5) # 20018 <motor1_Vcomp>
   107bc:	000207b7          	lui	a5,0x20
   107c0:	03c7a703          	lw	a4,60(a5) # 2003c <motor2_Vcomp_temp>
   107c4:	0ff00793          	li	a5,255
   107c8:	00e7da63          	ble	a4,a5,107dc <main+0x630>
   107cc:	000207b7          	lui	a5,0x20
   107d0:	0ff00713          	li	a4,255
   107d4:	02e7ac23          	sw	a4,56(a5) # 20038 <motor2_Vcomp>
   107d8:	0300006f          	j	10808 <main+0x65c>
   107dc:	000207b7          	lui	a5,0x20
   107e0:	03c7a783          	lw	a5,60(a5) # 2003c <motor2_Vcomp_temp>
   107e4:	00f04863          	bgtz	a5,107f4 <main+0x648>
   107e8:	000207b7          	lui	a5,0x20
   107ec:	0207ac23          	sw	zero,56(a5) # 20038 <motor2_Vcomp>
   107f0:	0180006f          	j	10808 <main+0x65c>
   107f4:	000207b7          	lui	a5,0x20
   107f8:	03c7a783          	lw	a5,60(a5) # 2003c <motor2_Vcomp_temp>
   107fc:	0ff7f713          	andi	a4,a5,255
   10800:	000207b7          	lui	a5,0x20
   10804:	02e7ac23          	sw	a4,56(a5) # 20038 <motor2_Vcomp>
   10808:	000207b7          	lui	a5,0x20
   1080c:	05c7a703          	lw	a4,92(a5) # 2005c <motor3_Vcomp_temp>
   10810:	0ff00793          	li	a5,255
   10814:	00e7da63          	ble	a4,a5,10828 <main+0x67c>
   10818:	000207b7          	lui	a5,0x20
   1081c:	0ff00713          	li	a4,255
   10820:	04e7ac23          	sw	a4,88(a5) # 20058 <motor3_Vcomp>
   10824:	0300006f          	j	10854 <main+0x6a8>
   10828:	000207b7          	lui	a5,0x20
   1082c:	05c7a783          	lw	a5,92(a5) # 2005c <motor3_Vcomp_temp>
   10830:	00f04863          	bgtz	a5,10840 <main+0x694>
   10834:	000207b7          	lui	a5,0x20
   10838:	0407ac23          	sw	zero,88(a5) # 20058 <motor3_Vcomp>
   1083c:	0180006f          	j	10854 <main+0x6a8>
   10840:	000207b7          	lui	a5,0x20
   10844:	05c7a783          	lw	a5,92(a5) # 2005c <motor3_Vcomp_temp>
   10848:	0ff7f713          	andi	a4,a5,255
   1084c:	000207b7          	lui	a5,0x20
   10850:	04e7ac23          	sw	a4,88(a5) # 20058 <motor3_Vcomp>
   10854:	000207b7          	lui	a5,0x20
   10858:	07c7a703          	lw	a4,124(a5) # 2007c <motor4_Vcomp_temp>
   1085c:	0ff00793          	li	a5,255
   10860:	00e7da63          	ble	a4,a5,10874 <main+0x6c8>
   10864:	000207b7          	lui	a5,0x20
   10868:	0ff00713          	li	a4,255
   1086c:	06e7ac23          	sw	a4,120(a5) # 20078 <motor4_Vcomp>
   10870:	0300006f          	j	108a0 <main+0x6f4>
   10874:	000207b7          	lui	a5,0x20
   10878:	07c7a783          	lw	a5,124(a5) # 2007c <motor4_Vcomp_temp>
   1087c:	00f04863          	bgtz	a5,1088c <main+0x6e0>
   10880:	000207b7          	lui	a5,0x20
   10884:	0607ac23          	sw	zero,120(a5) # 20078 <motor4_Vcomp>
   10888:	0180006f          	j	108a0 <main+0x6f4>
   1088c:	000207b7          	lui	a5,0x20
   10890:	07c7a783          	lw	a5,124(a5) # 2007c <motor4_Vcomp_temp>
   10894:	0ff7f713          	andi	a4,a5,255
   10898:	000207b7          	lui	a5,0x20
   1089c:	06e7ac23          	sw	a4,120(a5) # 20078 <motor4_Vcomp>
   108a0:	000207b7          	lui	a5,0x20
   108a4:	0787a783          	lw	a5,120(a5) # 20078 <motor4_Vcomp>
   108a8:	01879713          	slli	a4,a5,0x18
   108ac:	000207b7          	lui	a5,0x20
   108b0:	0587a783          	lw	a5,88(a5) # 20058 <motor3_Vcomp>
   108b4:	01079793          	slli	a5,a5,0x10
   108b8:	00f70733          	add	a4,a4,a5
   108bc:	000207b7          	lui	a5,0x20
   108c0:	0387a783          	lw	a5,56(a5) # 20038 <motor2_Vcomp>
   108c4:	00879793          	slli	a5,a5,0x8
   108c8:	00f70733          	add	a4,a4,a5
   108cc:	000207b7          	lui	a5,0x20
   108d0:	0187a783          	lw	a5,24(a5) # 20018 <motor1_Vcomp>
   108d4:	00f70733          	add	a4,a4,a5
   108d8:	000207b7          	lui	a5,0x20
   108dc:	08e7aa23          	sw	a4,148(a5) # 20094 <motor_Vcomp_total>
   108e0:	000207b7          	lui	a5,0x20
   108e4:	0947a703          	lw	a4,148(a5) # 20094 <motor_Vcomp_total>
   108e8:	000207b7          	lui	a5,0x20
   108ec:	0a87a783          	lw	a5,168(a5) # 200a8 <pwm_addr>
   108f0:	00e7a023          	sw	a4,0(a5)
   108f4:	000207b7          	lui	a5,0x20
   108f8:	0a47a783          	lw	a5,164(a5) # 200a4 <sensor_addr>
   108fc:	20078793          	addi	a5,a5,512
   10900:	00100713          	li	a4,1
   10904:	00e7a023          	sw	a4,0(a5)
   10908:	901ff06f          	j	10208 <main+0x5c>
   1090c:	00078513          	mv	a0,a5
   10910:	01c12403          	lw	s0,28(sp)
   10914:	02010113          	addi	sp,sp,32
   10918:	00008067          	ret
